target datalayout = "e-m:e-p270:32:32-p271:32:32-p272:64:64-i64:64-i128:128-f80:128-n8:16:32:64-S128"
target triple = "x86_64-pc-linux-gnu"

; Function Attrs: alwaysinline nounwind
define internal ptr @memset.inline(ptr %0, i32 %1, i64 %2) #8 {
  %4 = alloca ptr, align 8
  %5 = alloca i32, align 4
  %6 = alloca i64, align 8
  store ptr %0, ptr %4, align 8
  store i32 %1, ptr %5, align 4
  store i64 %2, ptr %6, align 8
  %7 = load ptr, ptr %4, align 8
  %8 = load i32, ptr %5, align 4
  %9 = load i64, ptr %6, align 8
  %10 = load ptr, ptr %4, align 8
  %11 = call i64 @llvm.objectsize.i64.p0(ptr %10, i1 false, i1 true, i1 true)
  %12 = call ptr @__memset_chk(ptr noundef %7, i32 noundef %8, i64 noundef %9, i64 noundef %11) #11
  ret ptr %12
}

; Function Attrs: nounwind null_pointer_is_valid sspstrong uwtable
define internal ptr @sort_alphabet(ptr noundef %0, ptr noundef %1, i32 noundef %2, ptr noundef %3, ptr noundef %4) #7 {
  %6 = alloca ptr, align 8
  %7 = alloca ptr, align 8
  %8 = alloca ptr, align 8
  %9 = alloca i32, align 4
  %10 = alloca ptr, align 8
  %11 = alloca ptr, align 8
  %12 = alloca i32, align 4
  %13 = alloca i32, align 4
  %14 = alloca i8, align 1
  %15 = alloca i8, align 1
  %16 = alloca i8, align 1
  %17 = alloca [256 x i8], align 16
  %18 = alloca i32, align 4
  store ptr %0, ptr %7, align 8
  store ptr %1, ptr %8, align 8
  store i32 %2, ptr %9, align 4
  store ptr %3, ptr %10, align 8
  store ptr %4, ptr %11, align 8
  call void @llvm.lifetime.start.p0(i64 4, ptr %12) #11
  call void @llvm.lifetime.start.p0(i64 4, ptr %13) #11
  call void @llvm.lifetime.start.p0(i64 1, ptr %14) #11
  call void @llvm.lifetime.start.p0(i64 1, ptr %15) #11
  call void @llvm.lifetime.start.p0(i64 1, ptr %16) #11
  call void @llvm.lifetime.start.p0(i64 256, ptr %17) #11
  %19 = load i32, ptr %9, align 4
  %20 = icmp ne i32 %19, 0
  br i1 %20, label %23, label %21

21:                                               ; preds = %5
  %22 = load ptr, ptr %7, align 8
  store ptr %22, ptr %6, align 8
  store i32 1, ptr %18, align 4
  br label %96

23:                                               ; preds = %5
  %24 = getelementptr inbounds [256 x i8], ptr %17, i64 0, i64 0
  %25 = call ptr @memset.inline(ptr noundef %24, i32 noundef 0, i64 noundef 256) #11
  %26 = load ptr, ptr %8, align 8
  %27 = getelementptr i8, ptr %26, i64 0
  %28 = load i8, ptr %27, align 1
  store i8 %28, ptr %15, align 1
  store i8 %28, ptr %16, align 1
  store i32 0, ptr %12, align 4
  br label %29

29:                                               ; preds = %59, %23
  %30 = load i32, ptr %12, align 4
  %31 = load i32, ptr %9, align 4
  %32 = icmp slt i32 %30, %31
  br i1 %32, label %33, label %62

33:                                               ; preds = %29
  %34 = load ptr, ptr %8, align 8
  %35 = load i32, ptr %12, align 4
  %36 = sext i32 %35 to i64
  %37 = getelementptr i8, ptr %34, i64 %36
  %38 = load i8, ptr %37, align 1
  store i8 %38, ptr %14, align 1
  %39 = load i8, ptr %14, align 1
  %40 = zext i8 %39 to i64
  %41 = getelementptr [256 x i8], ptr %17, i64 0, i64 %40
  store i8 1, ptr %41, align 1
  %42 = load i8, ptr %14, align 1
  %43 = zext i8 %42 to i32
  %44 = load i8, ptr %15, align 1
  %45 = zext i8 %44 to i32
  %46 = icmp sgt i32 %43, %45
  br i1 %46, label %47, label %49

47:                                               ; preds = %33
  %48 = load i8, ptr %14, align 1
  store i8 %48, ptr %15, align 1
  br label %58

49:                                               ; preds = %33
  %50 = load i8, ptr %14, align 1
  %51 = zext i8 %50 to i32
  %52 = load i8, ptr %16, align 1
  %53 = zext i8 %52 to i32
  %54 = icmp slt i32 %51, %53
  br i1 %54, label %55, label %57

55:                                               ; preds = %49
  %56 = load i8, ptr %14, align 1
  store i8 %56, ptr %16, align 1
  br label %57

57:                                               ; preds = %55, %49
  br label %58

58:                                               ; preds = %57, %47
  br label %59

59:                                               ; preds = %58
  %60 = load i32, ptr %12, align 4
  %61 = add i32 %60, 1
  store i32 %61, ptr %12, align 4
  br label %29, !llvm.loop !13

62:                                               ; preds = %29
  %63 = load i8, ptr %16, align 1
  %64 = zext i8 %63 to i32
  store i32 %64, ptr %12, align 4
  store i32 0, ptr %13, align 4
  br label %65

65:                                               ; preds = %85, %62
  %66 = load i32, ptr %12, align 4
  %67 = load i8, ptr %15, align 1
  %68 = zext i8 %67 to i32
  %69 = icmp sle i32 %66, %68
  br i1 %69, label %70, label %88

70:                                               ; preds = %65
  %71 = load i32, ptr %12, align 4
  %72 = sext i32 %71 to i64
  %73 = getelementptr [256 x i8], ptr %17, i64 0, i64 %72
  %74 = load i8, ptr %73, align 1
  %75 = icmp ne i8 %74, 0
  br i1 %75, label %76, label %84

76:                                               ; preds = %70
  %77 = load i32, ptr %12, align 4
  %78 = trunc i32 %77 to i8
  %79 = load ptr, ptr %7, align 8
  %80 = load i32, ptr %13, align 4
  %81 = add i32 %80, 1
  store i32 %81, ptr %13, align 4
  %82 = sext i32 %80 to i64
  %83 = getelementptr i8, ptr %79, i64 %82
  store i8 %78, ptr %83, align 1
  br label %84

84:                                               ; preds = %76, %70
  br label %85

85:                                               ; preds = %84
  %86 = load i32, ptr %12, align 4
  %87 = add i32 %86, 1
  store i32 %87, ptr %12, align 4
  br label %65, !llvm.loop !14

88:                                               ; preds = %65
  %89 = load i8, ptr %16, align 1
  %90 = zext i8 %89 to i16
  %91 = load ptr, ptr %10, align 8
  store i16 %90, ptr %91, align 2
  %92 = load i8, ptr %15, align 1
  %93 = zext i8 %92 to i16
  %94 = load ptr, ptr %11, align 8
  store i16 %93, ptr %94, align 2
  %95 = load ptr, ptr %7, align 8
  store ptr %95, ptr %6, align 8
  store i32 1, ptr %18, align 4
  br label %96

96:                                               ; preds = %88, %21
  call void @llvm.lifetime.end.p0(i64 256, ptr %17) #11
  call void @llvm.lifetime.end.p0(i64 1, ptr %16) #11
  call void @llvm.lifetime.end.p0(i64 1, ptr %15) #11
  call void @llvm.lifetime.end.p0(i64 1, ptr %14) #11
  call void @llvm.lifetime.end.p0(i64 4, ptr %13) #11
  call void @llvm.lifetime.end.p0(i64 4, ptr %12) #11
  %97 = load ptr, ptr %6, align 8
  ret ptr %97
}

; Function Attrs: null_pointer_is_valid sspstrong uwtable
define i32 @dissect_per_restricted_character_string(ptr noundef %0, i32 noundef %1, ptr noundef %2, ptr noundef %3, i32 noundef %4, i32 noundef %5, i32 noundef %6, i1 noundef zeroext %7, ptr noundef %8, i32 noundef %9, ptr noundef %10) #0 {
  %12 = alloca ptr, align 8
  %13 = alloca i32, align 4
  %14 = alloca ptr, align 8
  %15 = alloca ptr, align 8
  %16 = alloca i32, align 4
  %17 = alloca i32, align 4
  %18 = alloca i32, align 4
  %19 = alloca i8, align 1
  %20 = alloca ptr, align 8
  %21 = alloca i32, align 4
  %22 = alloca ptr, align 8
  %23 = alloca ptr, align 8
  %24 = alloca [128 x i8], align 16
  %25 = alloca i16, align 2
  %26 = alloca i16, align 2
  store ptr %0, ptr %12, align 8
  store i32 %1, ptr %13, align 4
  store ptr %2, ptr %14, align 8
  store ptr %3, ptr %15, align 8
  store i32 %4, ptr %16, align 4
  store i32 %5, ptr %17, align 4
  store i32 %6, ptr %18, align 4
  %27 = zext i1 %7 to i8
  store i8 %27, ptr %19, align 1
  store ptr %8, ptr %20, align 8
  store i32 %9, ptr %21, align 4
  store ptr %10, ptr %22, align 8
  call void @llvm.lifetime.start.p0(i64 8, ptr %23) #11
  call void @llvm.lifetime.start.p0(i64 128, ptr %24) #11
  call void @llvm.lifetime.start.p0(i64 2, ptr %25) #11
  store i16 0, ptr %25, align 2
  call void @llvm.lifetime.start.p0(i64 2, ptr %26) #11
  store i16 -1, ptr %26, align 2
  %28 = load i32, ptr %21, align 4
  %29 = icmp sgt i32 %28, 127
  br i1 %29, label %30, label %32

30:                                               ; preds = %11
  %31 = load ptr, ptr %20, align 8
  store ptr %31, ptr %23, align 8
  br label %37

32:                                               ; preds = %11
  %33 = getelementptr inbounds [128 x i8], ptr %24, i64 0, i64 0
  %34 = load ptr, ptr %20, align 8
  %35 = load i32, ptr %21, align 4
  %36 = call ptr @sort_alphabet(ptr noundef %33, ptr noundef %34, i32 noundef %35, ptr noundef %25, ptr noundef %26)
  store ptr %36, ptr %23, align 8
  br label %37

37:                                               ; preds = %32, %30
  %38 = load ptr, ptr %12, align 8
  %39 = load i32, ptr %13, align 4
  %40 = load ptr, ptr %14, align 8
  %41 = load ptr, ptr %15, align 8
  %42 = load i32, ptr %16, align 4
  %43 = load i32, ptr %17, align 4
  %44 = load i32, ptr %18, align 4
  %45 = load i8, ptr %19, align 1, !range !6, !noundef !7
  %46 = trunc i8 %45 to i1
  %47 = load i16, ptr %25, align 2
  %48 = load i16, ptr %26, align 2
  %49 = load ptr, ptr %23, align 8
  %50 = load i32, ptr %21, align 4
  %51 = load ptr, ptr %22, align 8
  %52 = call i32 @dissect_per_restricted_character_string_sorted(ptr noundef %38, i32 noundef %39, ptr noundef %40, ptr noundef %41, i32 noundef %42, i32 noundef %43, i32 noundef %44, i1 noundef zeroext %46, i16 noundef zeroext %47, i16 noundef zeroext %48, ptr noundef %49, i32 noundef %50, ptr noundef %51)
  call void @llvm.lifetime.end.p0(i64 2, ptr %26) #11
  call void @llvm.lifetime.end.p0(i64 2, ptr %25) #11
  call void @llvm.lifetime.end.p0(i64 128, ptr %24) #11
  call void @llvm.lifetime.end.p0(i64 8, ptr %23) #11
  ret i32 %52
}