; Function Attrs: null_pointer_is_valid sspstrong uwtable
define i32 @dissect_per_restricted_character_string(ptr noundef %0, i32 noundef %1, ptr noundef captures(none) %2, ptr noundef %3, i32 noundef %4, i32 noundef %5, i32 noundef %6, i1 noundef zeroext %7, ptr noundef readonly captures(none) %8, i32 noundef %9, ptr noundef captures(address_is_null) %10) local_unnamed_addr #0 {
  %12 = alloca [256 x i8], align 16
  %13 = alloca [128 x i8], align 16
  call void @llvm.lifetime.start.p0(i64 128, ptr nonnull %13) #13
  %14 = icmp sgt i32 %9, 127
  br i1 %14, label %36, label %15

15:                                               ; preds = %11
  call void @llvm.lifetime.start.p0(i64 256, ptr nonnull %12) #13
  %.not.i = icmp eq i32 %9, 0
  br i1 %.not.i, label %sort_alphabet.exit, label %16

16:                                               ; preds = %15
  call void @llvm.memset.p0.i64(ptr noundef nonnull align 16 dereferenceable(256) %12, i8 noundef 0, i64 noundef 256, i1 noundef false) #13
  %17 = load i8, ptr %8, align 1
  %18 = icmp sgt i32 %9, 0
  br i1 %18, label %.lr.ph.preheader.i, label %.lr.ph47.preheader.i

.lr.ph.preheader.i:                               ; preds = %16
  %wide.trip.count.i = zext nneg i32 %9 to i64
  br label %.lr.ph.i

.lr.ph.i:                                         ; preds = %.lr.ph.i, %.lr.ph.preheader.i
  %indvars.iv.i = phi i64 [ 0, %.lr.ph.preheader.i ], [ %indvars.iv.next.i, %.lr.ph.i ]
  %.041.i = phi i8 [ %17, %.lr.ph.preheader.i ], [ %.1.i, %.lr.ph.i ]
  %.02840.i = phi i8 [ %17, %.lr.ph.preheader.i ], [ %.129.i, %.lr.ph.i ]
  %19 = getelementptr i8, ptr %8, i64 %indvars.iv.i
  %20 = load i8, ptr %19, align 1
  %21 = zext i8 %20 to i64
  %22 = getelementptr [256 x i8], ptr %12, i64 0, i64 %21
  store i8 1, ptr %22, align 1
  %23 = icmp ugt i8 %20, %.02840.i
  %spec.select.i = tail call i8 @llvm.umin.i8(i8 %20, i8 %.041.i)
  %.129.i = tail call i8 @llvm.umax.i8(i8 %20, i8 %.02840.i)
  %.1.i = select i1 %23, i8 %.041.i, i8 %spec.select.i
  %indvars.iv.next.i = add nuw nsw i64 %indvars.iv.i, 1
  %exitcond.not.i = icmp eq i64 %indvars.iv.next.i, %wide.trip.count.i
  br i1 %exitcond.not.i, label %._crit_edge.i, label %.lr.ph.i, !llvm.loop !13

._crit_edge.i:                                    ; preds = %.lr.ph.i
  %.not3743.i = icmp ugt i8 %.1.i, %.129.i
  br i1 %.not3743.i, label %._crit_edge48.i, label %.lr.ph47.preheader.i

.lr.ph47.preheader.i:                             ; preds = %._crit_edge.i, %16
  %.0.lcssa59.i = phi i8 [ %.1.i, %._crit_edge.i ], [ %17, %16 ]
  %.028.lcssa57.i = phi i8 [ %.129.i, %._crit_edge.i ], [ %17, %16 ]
  %24 = zext i8 %.028.lcssa57.i to i64
  %25 = zext i8 %.0.lcssa59.i to i64
  br label %.lr.ph47.i

.lr.ph47.i:                                       ; preds = %33, %.lr.ph47.preheader.i
  %indvars.iv49.i = phi i64 [ %25, %.lr.ph47.preheader.i ], [ %indvars.iv.next50.i, %33 ]
  %.03145.i = phi i32 [ 0, %.lr.ph47.preheader.i ], [ %.132.i, %33 ]
  %26 = getelementptr [256 x i8], ptr %12, i64 0, i64 %indvars.iv49.i
  %27 = load i8, ptr %26, align 1
  %.not38.i = icmp eq i8 %27, 0
  br i1 %.not38.i, label %33, label %28

28:                                               ; preds = %.lr.ph47.i
  %29 = trunc i64 %indvars.iv49.i to i8
  %30 = add i32 %.03145.i, 1
  %31 = sext i32 %.03145.i to i64
  %32 = getelementptr i8, ptr %13, i64 %31
  store i8 %29, ptr %32, align 1
  br label %33

33:                                               ; preds = %28, %.lr.ph47.i
  %.132.i = phi i32 [ %30, %28 ], [ %.03145.i, %.lr.ph47.i ]
  %indvars.iv.next50.i = add nuw nsw i64 %indvars.iv49.i, 1
  %exitcond53.not.i = icmp eq i64 %indvars.iv49.i, %24
  br i1 %exitcond53.not.i, label %._crit_edge48.i, label %.lr.ph47.i, !llvm.loop !14

._crit_edge48.i:                                  ; preds = %33, %._crit_edge.i
  %.0.lcssa60.i = phi i8 [ %.1.i, %._crit_edge.i ], [ %.0.lcssa59.i, %33 ]
  %.028.lcssa58.i = phi i8 [ %.129.i, %._crit_edge.i ], [ %.028.lcssa57.i, %33 ]
  %34 = zext i8 %.0.lcssa60.i to i16
  %35 = zext i8 %.028.lcssa58.i to i16
  br label %sort_alphabet.exit

sort_alphabet.exit:                               ; preds = %15, %._crit_edge48.i
  %.118 = phi i16 [ 0, %15 ], [ %34, %._crit_edge48.i ]
  %.1 = phi i16 [ -1, %15 ], [ %35, %._crit_edge48.i ]
  call void @llvm.lifetime.end.p0(i64 256, ptr nonnull %12) #13
  br label %36

36:                                               ; preds = %11, %sort_alphabet.exit
  %.017 = phi i16 [ 0, %11 ], [ %.118, %sort_alphabet.exit ]
  %.016 = phi i16 [ -1, %11 ], [ %.1, %sort_alphabet.exit ]
  %.0 = phi ptr [ %8, %11 ], [ %13, %sort_alphabet.exit ]
  %37 = call fastcc i32 @dissect_per_restricted_character_string_sorted(ptr noundef %0, i32 noundef %1, ptr noundef %2, ptr noundef %3, i32 noundef %4, i32 noundef %5, i32 noundef %6, i1 noundef zeroext %7, i16 noundef zeroext %.017, i16 noundef zeroext %.016, ptr noundef %.0, i32 noundef %9, ptr noundef %10)
  call void @llvm.lifetime.end.p0(i64 128, ptr nonnull %13) #13
  ret i32 %37
}